ARM GAS  C:\Users\giris\AppData\Local\Temp\cczSilXR.s 			page 1


   1              		.syntax unified
   2              		.cpu cortex-m3
   3              		.fpu softvfp
   4              		.eabi_attribute 20, 1
   5              		.eabi_attribute 21, 1
   6              		.eabi_attribute 23, 3
   7              		.eabi_attribute 24, 1
   8              		.eabi_attribute 25, 1
   9              		.eabi_attribute 26, 1
  10              		.eabi_attribute 30, 1
  11              		.eabi_attribute 34, 1
  12              		.eabi_attribute 18, 4
  13              		.thumb
  14              		.syntax unified
  15              		.file	"main.c"
  16              		.text
  17              	.Ltext0:
  18              		.cfi_sections	.debug_frame
  19              		.section	.text.isr_button_RisingEdge_Interrupt,"ax",%progbits
  20              		.align	2
  21              		.global	isr_button_RisingEdge_Interrupt
  22              		.thumb
  23              		.thumb_func
  24              		.type	isr_button_RisingEdge_Interrupt, %function
  25              	isr_button_RisingEdge_Interrupt:
  26              	.LFB65:
  27              		.file 1 "source\\asw\\main.c"
   1:source\asw/main.c **** /* ========================================
   2:source\asw/main.c ****  *
   3:source\asw/main.c ****  * Copyright YOUR COMPANY, THE YEAR
   4:source\asw/main.c ****  * All Rights Reserved
   5:source\asw/main.c ****  * UNPUBLISHED, LICENSED SOFTWARE.
   6:source\asw/main.c ****  *
   7:source\asw/main.c ****  * CONFIDENTIAL AND PROPRIETARY INFORMATION
   8:source\asw/main.c ****  * WHICH IS THE PROPERTY OF your company.
   9:source\asw/main.c ****  *
  10:source\asw/main.c ****  * ========================================
  11:source\asw/main.c **** */
  12:source\asw/main.c **** #include <stdio.h>
  13:source\asw/main.c **** #include <stdlib.h>
  14:source\asw/main.c **** #include "project.h"
  15:source\asw/main.c **** #include "logging.h"
  16:source\asw/main.c **** 
  17:source\asw/main.c **** volatile uint8 toggle = 0;
  18:source\asw/main.c **** 
  19:source\asw/main.c **** CY_ISR_PROTO(isr_button_RisingEdge_Interrupt);
  20:source\asw/main.c **** 
  21:source\asw/main.c **** CY_ISR_PROTO(isr_UART);
  22:source\asw/main.c **** 
  23:source\asw/main.c **** typedef enum
  24:source\asw/main.c **** {
  25:source\asw/main.c ****     IDLE_STATE,
  26:source\asw/main.c ****     SAMPLING_STATE,
  27:source\asw/main.c ****     UART_TRANSFER_STATE
  28:source\asw/main.c **** 
  29:source\asw/main.c **** }STATE_t;
  30:source\asw/main.c **** 
ARM GAS  C:\Users\giris\AppData\Local\Temp\cczSilXR.s 			page 2


  31:source\asw/main.c **** uint8_t sChRx = 0;
  32:source\asw/main.c **** uint8_t oChRx = 0;
  33:source\asw/main.c **** char rxDataCh;
  34:source\asw/main.c **** 
  35:source\asw/main.c **** int main(void)
  36:source\asw/main.c **** {
  37:source\asw/main.c ****     CyGlobalIntEnable; /* Enable global interrupts. */
  38:source\asw/main.c ****     
  39:source\asw/main.c ****     isr_button_StartEx(isr_button_RisingEdge_Interrupt);
  40:source\asw/main.c ****     isr_UART_StartEx(isr_UART);
  41:source\asw/main.c ****     
  42:source\asw/main.c ****     //Hardware Init
  43:source\asw/main.c ****     UART_LOG_Start();
  44:source\asw/main.c ****     WaveDAC8_Start();
  45:source\asw/main.c ****     //WaveDAC8_Enable();
  46:source\asw/main.c ****     ADC_Start();
  47:source\asw/main.c ****     ADC_StartConvert();
  48:source\asw/main.c ****     
  49:source\asw/main.c ****     //char buffer[100];
  50:source\asw/main.c ****     
  51:source\asw/main.c ****     uint8_t count = 0;
  52:source\asw/main.c ****     uint16_t ADC_Array[1024] = {0};
  53:source\asw/main.c ****     
  54:source\asw/main.c ****     /* Place your initialization/startup code here (e.g. MyInst_Start()) */
  55:source\asw/main.c ****     
  56:source\asw/main.c ****     //Initializing the state to IDLE_STATE.
  57:source\asw/main.c ****     STATE_t POS = IDLE_STATE;
  58:source\asw/main.c ****  
  59:source\asw/main.c ****     for(; ;)
  60:source\asw/main.c ****     {
  61:source\asw/main.c ****         switch(POS)
  62:source\asw/main.c ****         {
  63:source\asw/main.c ****             case IDLE_STATE:
  64:source\asw/main.c ****                 //Initializing count to 0;
  65:source\asw/main.c ****                 count = 0;
  66:source\asw/main.c ****                 if(toggle == 1)
  67:source\asw/main.c ****                 {
  68:source\asw/main.c ****                     POS = SAMPLING_STATE;
  69:source\asw/main.c ****                     toggle = 0;
  70:source\asw/main.c ****                 }
  71:source\asw/main.c ****             break;
  72:source\asw/main.c ****             
  73:source\asw/main.c ****             case SAMPLING_STATE:
  74:source\asw/main.c ****                 for(int i = 0; i < 1024; i++)
  75:source\asw/main.c ****                 {
  76:source\asw/main.c ****                     ADC_IsEndConversion(ADC_WAIT_FOR_RESULT);
  77:source\asw/main.c ****                     
  78:source\asw/main.c ****                  //   int32 ADC_result = ADC_GetResult32();
  79:source\asw/main.c ****         //            ADC_Array[i] = (uint16_t)ADC_CountsTo_mVolts(ADC_result);
  80:source\asw/main.c ****                     ADC_Array[i] = (uint16_t)ADC_GetResult32();
  81:source\asw/main.c **** //                    itoa(ADC_result_mV, buffer, 10);
  82:source\asw/main.c **** //                    UART_LOG_PutString(buffer);
  83:source\asw/main.c **** //                    UART_LOG_PutString("\n");
  84:source\asw/main.c ****                 }
  85:source\asw/main.c ****                 
  86:source\asw/main.c **** //                if(UART_LOG_GetChar() == 's')
  87:source\asw/main.c **** //                {
ARM GAS  C:\Users\giris\AppData\Local\Temp\cczSilXR.s 			page 3


  88:source\asw/main.c **** //                    Red_LED_Write(1);
  89:source\asw/main.c **** //                    POS = UART_TRANSFER_STATE;
  90:source\asw/main.c **** //                }
  91:source\asw/main.c ****                          
  92:source\asw/main.c ****                 if(sChRx)
  93:source\asw/main.c ****                 {
  94:source\asw/main.c ****                  //   UART_LOG_PutString("I received S \n");
  95:source\asw/main.c ****                     Red_LED_Write(1);
  96:source\asw/main.c ****                     POS = UART_TRANSFER_STATE;
  97:source\asw/main.c ****                     sChRx = 0;
  98:source\asw/main.c ****                 }
  99:source\asw/main.c ****             break;
 100:source\asw/main.c ****             
 101:source\asw/main.c ****             case UART_TRANSFER_STATE:
 102:source\asw/main.c ****                 for(int i = 0; i < 1024; i++)
 103:source\asw/main.c ****                 {
 104:source\asw/main.c ****                     UART_LOG_PutChar(ADC_Array[i]);
 105:source\asw/main.c ****                     UART_LOG_PutChar(ADC_Array[i]>>8);
 106:source\asw/main.c ****                 }
 107:source\asw/main.c ****                 count++;
 108:source\asw/main.c ****                 
 109:source\asw/main.c **** //                if((count < 10) && UART_LOG_GetChar() == 'o')
 110:source\asw/main.c **** //                {
 111:source\asw/main.c **** //                    POS = SAMPLING_STATE;
 112:source\asw/main.c **** //                    Red_LED_Write(0);
 113:source\asw/main.c **** //                }
 114:source\asw/main.c **** //                else if((count == 10) && UART_LOG_GetChar() == 'o')
 115:source\asw/main.c **** //                {
 116:source\asw/main.c **** //                    POS = IDLE_STATE;  
 117:source\asw/main.c **** //                }
 118:source\asw/main.c ****                 
 119:source\asw/main.c ****                 if((count < 10) && oChRx)
 120:source\asw/main.c ****                 {
 121:source\asw/main.c ****                     POS = SAMPLING_STATE;
 122:source\asw/main.c ****                     Red_LED_Write(0);
 123:source\asw/main.c ****                     oChRx = 0;
 124:source\asw/main.c ****                 }
 125:source\asw/main.c ****                 else if((count == 10) && oChRx)
 126:source\asw/main.c ****                 {
 127:source\asw/main.c ****                     POS = IDLE_STATE;  
 128:source\asw/main.c ****                     oChRx = 0;
 129:source\asw/main.c ****                 }
 130:source\asw/main.c ****             break;
 131:source\asw/main.c ****             
 132:source\asw/main.c ****             default:
 133:source\asw/main.c ****             break;
 134:source\asw/main.c ****         }
 135:source\asw/main.c ****     }
 136:source\asw/main.c **** }
 137:source\asw/main.c ****     
 138:source\asw/main.c **** /**
 139:source\asw/main.c **** *This interrupt service routine will be called whenever a Button 1 rising edge interrupt occurs.
 140:source\asw/main.c **** **/
 141:source\asw/main.c **** CY_ISR(isr_button_RisingEdge_Interrupt)
 142:source\asw/main.c **** {
  28              		.loc 1 142 0
  29              		.cfi_startproc
ARM GAS  C:\Users\giris\AppData\Local\Temp\cczSilXR.s 			page 4


  30              		@ args = 0, pretend = 0, frame = 0
  31              		@ frame_needed = 0, uses_anonymous_args = 0
  32 0000 08B5     		push	{r3, lr}
  33              		.cfi_def_cfa_offset 8
  34              		.cfi_offset 3, -8
  35              		.cfi_offset 14, -4
 143:source\asw/main.c ****     Push_button_ClearInterrupt();
  36              		.loc 1 143 0
  37 0002 FFF7FEFF 		bl	Push_button_ClearInterrupt
  38              	.LVL0:
 144:source\asw/main.c ****     
 145:source\asw/main.c ****     if(toggle == 0)
  39              		.loc 1 145 0
  40 0006 044B     		ldr	r3, .L4
  41 0008 1B78     		ldrb	r3, [r3]	@ zero_extendqisi2
  42 000a 13F0FF0F 		tst	r3, #255
  43 000e 02D1     		bne	.L1
 146:source\asw/main.c ****     {
 147:source\asw/main.c ****         toggle = 1;
  44              		.loc 1 147 0
  45 0010 0122     		movs	r2, #1
  46 0012 014B     		ldr	r3, .L4
  47 0014 1A70     		strb	r2, [r3]
  48              	.L1:
  49 0016 08BD     		pop	{r3, pc}
  50              	.L5:
  51              		.align	2
  52              	.L4:
  53 0018 00000000 		.word	.LANCHOR0
  54              		.cfi_endproc
  55              	.LFE65:
  56              		.size	isr_button_RisingEdge_Interrupt, .-isr_button_RisingEdge_Interrupt
  57              		.section	.text.isr_UART,"ax",%progbits
  58              		.align	2
  59              		.global	isr_UART
  60              		.thumb
  61              		.thumb_func
  62              		.type	isr_UART, %function
  63              	isr_UART:
  64              	.LFB66:
 148:source\asw/main.c ****     }
 149:source\asw/main.c **** }
 150:source\asw/main.c **** 
 151:source\asw/main.c **** CY_ISR(isr_UART)
 152:source\asw/main.c **** {
  65              		.loc 1 152 0
  66              		.cfi_startproc
  67              		@ args = 0, pretend = 0, frame = 0
  68              		@ frame_needed = 0, uses_anonymous_args = 0
  69 0000 08B5     		push	{r3, lr}
  70              		.cfi_def_cfa_offset 8
  71              		.cfi_offset 3, -8
  72              		.cfi_offset 14, -4
 153:source\asw/main.c ****     rxDataCh = UART_LOG_GetChar();
  73              		.loc 1 153 0
  74 0002 FFF7FEFF 		bl	UART_LOG_GetChar
  75              	.LVL1:
ARM GAS  C:\Users\giris\AppData\Local\Temp\cczSilXR.s 			page 5


  76 0006 064B     		ldr	r3, .L10
  77 0008 1870     		strb	r0, [r3]
 154:source\asw/main.c ****     if(rxDataCh == 's')
  78              		.loc 1 154 0
  79 000a 7328     		cmp	r0, #115
  80 000c 02D1     		bne	.L7
 155:source\asw/main.c ****     {
 156:source\asw/main.c ****        // UART_LOG_PutString("S is sent \n");
 157:source\asw/main.c ****         sChRx = 1;
  81              		.loc 1 157 0
  82 000e 0122     		movs	r2, #1
  83 0010 044B     		ldr	r3, .L10+4
  84 0012 5A70     		strb	r2, [r3, #1]
  85              	.L7:
 158:source\asw/main.c ****     }
 159:source\asw/main.c ****     if(rxDataCh == 'o')
  86              		.loc 1 159 0
  87 0014 6F28     		cmp	r0, #111
  88 0016 02D1     		bne	.L6
 160:source\asw/main.c ****     {
 161:source\asw/main.c ****         oChRx = 1;
  89              		.loc 1 161 0
  90 0018 0122     		movs	r2, #1
  91 001a 024B     		ldr	r3, .L10+4
  92 001c 9A70     		strb	r2, [r3, #2]
  93              	.L6:
  94 001e 08BD     		pop	{r3, pc}
  95              	.L11:
  96              		.align	2
  97              	.L10:
  98 0020 00000000 		.word	rxDataCh
  99 0024 00000000 		.word	.LANCHOR0
 100              		.cfi_endproc
 101              	.LFE66:
 102              		.size	isr_UART, .-isr_UART
 103              		.section	.text.main,"ax",%progbits
 104              		.align	2
 105              		.global	main
 106              		.thumb
 107              		.thumb_func
 108              		.type	main, %function
 109              	main:
 110              	.LFB64:
  36:source\asw/main.c ****     CyGlobalIntEnable; /* Enable global interrupts. */
 111              		.loc 1 36 0
 112              		.cfi_startproc
 113              		@ args = 0, pretend = 0, frame = 2048
 114              		@ frame_needed = 0, uses_anonymous_args = 0
 115 0000 F0B5     		push	{r4, r5, r6, r7, lr}
 116              		.cfi_def_cfa_offset 20
 117              		.cfi_offset 4, -20
 118              		.cfi_offset 5, -16
 119              		.cfi_offset 6, -12
 120              		.cfi_offset 7, -8
 121              		.cfi_offset 14, -4
 122 0002 ADF6040D 		subw	sp, sp, #2052
 123              		.cfi_def_cfa_offset 2072
ARM GAS  C:\Users\giris\AppData\Local\Temp\cczSilXR.s 			page 6


  37:source\asw/main.c ****     
 124              		.loc 1 37 0
 125              		.syntax unified
 126              	@ 37 "source\asw\main.c" 1
 127 0006 62B6     		CPSIE   i
 128              	@ 0 "" 2
  39:source\asw/main.c ****     isr_UART_StartEx(isr_UART);
 129              		.loc 1 39 0
 130              		.thumb
 131              		.syntax unified
 132 0008 3348     		ldr	r0, .L26
 133 000a FFF7FEFF 		bl	isr_button_StartEx
 134              	.LVL2:
  40:source\asw/main.c ****     
 135              		.loc 1 40 0
 136 000e 3348     		ldr	r0, .L26+4
 137 0010 FFF7FEFF 		bl	isr_UART_StartEx
 138              	.LVL3:
  43:source\asw/main.c ****     WaveDAC8_Start();
 139              		.loc 1 43 0
 140 0014 FFF7FEFF 		bl	UART_LOG_Start
 141              	.LVL4:
  44:source\asw/main.c ****     //WaveDAC8_Enable();
 142              		.loc 1 44 0
 143 0018 FFF7FEFF 		bl	WaveDAC8_Start
 144              	.LVL5:
  46:source\asw/main.c ****     ADC_StartConvert();
 145              		.loc 1 46 0
 146 001c FFF7FEFF 		bl	ADC_Start
 147              	.LVL6:
  47:source\asw/main.c ****     
 148              		.loc 1 47 0
 149 0020 FFF7FEFF 		bl	ADC_StartConvert
 150              	.LVL7:
  52:source\asw/main.c ****     
 151              		.loc 1 52 0
 152 0024 4FF40062 		mov	r2, #2048
 153 0028 0021     		movs	r1, #0
 154 002a 6846     		mov	r0, sp
 155 002c FFF7FEFF 		bl	memset
 156              	.LVL8:
  57:source\asw/main.c ****  
 157              		.loc 1 57 0
 158 0030 0026     		movs	r6, #0
  51:source\asw/main.c ****     uint16_t ADC_Array[1024] = {0};
 159              		.loc 1 51 0
 160 0032 3746     		mov	r7, r6
 161 0034 00E0     		b	.L14
 162              	.LVL9:
 163              	.L24:
  65:source\asw/main.c ****                 if(toggle == 1)
 164              		.loc 1 65 0
 165 0036 0027     		movs	r7, #0
 166              	.LVL10:
 167              	.L14:
  61:source\asw/main.c ****         {
 168              		.loc 1 61 0
ARM GAS  C:\Users\giris\AppData\Local\Temp\cczSilXR.s 			page 7


 169 0038 012E     		cmp	r6, #1
 170 003a 16D0     		beq	.L22
 171 003c 16B1     		cbz	r6, .L16
 172 003e 022E     		cmp	r6, #2
 173 0040 2DD0     		beq	.L23
 174 0042 F9E7     		b	.L14
 175              	.L16:
 176              	.LVL11:
  66:source\asw/main.c ****                 {
 177              		.loc 1 66 0
 178 0044 264B     		ldr	r3, .L26+8
 179 0046 1B78     		ldrb	r3, [r3]	@ zero_extendqisi2
 180 0048 DBB2     		uxtb	r3, r3
 181 004a 012B     		cmp	r3, #1
 182 004c F3D1     		bne	.L24
 183              	.LVL12:
  69:source\asw/main.c ****                 }
 184              		.loc 1 69 0
 185 004e 0027     		movs	r7, #0
 186 0050 234B     		ldr	r3, .L26+8
 187 0052 1F70     		strb	r7, [r3]
  68:source\asw/main.c ****                     toggle = 0;
 188              		.loc 1 68 0
 189 0054 0126     		movs	r6, #1
 190 0056 EFE7     		b	.L14
 191              	.LVL13:
 192              	.L19:
 193              	.LBB2:
  76:source\asw/main.c ****                     
 194              		.loc 1 76 0 discriminator 3
 195 0058 0020     		movs	r0, #0
 196 005a FFF7FEFF 		bl	ADC_IsEndConversion
 197              	.LVL14:
  80:source\asw/main.c **** //                    itoa(ADC_result_mV, buffer, 10);
 198              		.loc 1 80 0 discriminator 3
 199 005e FFF7FEFF 		bl	ADC_GetResult32
 200              	.LVL15:
 201 0062 2DF81400 		strh	r0, [sp, r4, lsl #1]	@ movhi
  74:source\asw/main.c ****                 {
 202              		.loc 1 74 0 discriminator 3
 203 0066 0134     		adds	r4, r4, #1
 204              	.LVL16:
 205 0068 00E0     		b	.L15
 206              	.LVL17:
 207              	.L22:
 208              	.LBE2:
  61:source\asw/main.c ****         {
 209              		.loc 1 61 0
 210 006a 0024     		movs	r4, #0
 211              	.L15:
 212              	.LVL18:
 213              	.LBB3:
  74:source\asw/main.c ****                 {
 214              		.loc 1 74 0 discriminator 1
 215 006c B4F5806F 		cmp	r4, #1024
 216 0070 F2DB     		blt	.L19
 217              	.LBE3:
ARM GAS  C:\Users\giris\AppData\Local\Temp\cczSilXR.s 			page 8


  92:source\asw/main.c ****                 {
 218              		.loc 1 92 0
 219 0072 1B4B     		ldr	r3, .L26+8
 220 0074 5B78     		ldrb	r3, [r3, #1]	@ zero_extendqisi2
 221 0076 002B     		cmp	r3, #0
 222 0078 DED0     		beq	.L14
  95:source\asw/main.c ****                     POS = UART_TRANSFER_STATE;
 223              		.loc 1 95 0
 224 007a 0120     		movs	r0, #1
 225 007c FFF7FEFF 		bl	Red_LED_Write
 226              	.LVL19:
  97:source\asw/main.c ****                 }
 227              		.loc 1 97 0
 228 0080 0022     		movs	r2, #0
 229 0082 174B     		ldr	r3, .L26+8
 230 0084 5A70     		strb	r2, [r3, #1]
  96:source\asw/main.c ****                     sChRx = 0;
 231              		.loc 1 96 0
 232 0086 0226     		movs	r6, #2
 233 0088 D6E7     		b	.L14
 234              	.LVL20:
 235              	.L20:
 236              	.LBB4:
 104:source\asw/main.c ****                     UART_LOG_PutChar(ADC_Array[i]>>8);
 237              		.loc 1 104 0 discriminator 3
 238 008a 3DF81450 		ldrh	r5, [sp, r4, lsl #1]
 239 008e E8B2     		uxtb	r0, r5
 240 0090 FFF7FEFF 		bl	UART_LOG_PutChar
 241              	.LVL21:
 105:source\asw/main.c ****                 }
 242              		.loc 1 105 0 discriminator 3
 243 0094 280A     		lsrs	r0, r5, #8
 244 0096 FFF7FEFF 		bl	UART_LOG_PutChar
 245              	.LVL22:
 102:source\asw/main.c ****                 {
 246              		.loc 1 102 0 discriminator 3
 247 009a 0134     		adds	r4, r4, #1
 248              	.LVL23:
 249 009c 00E0     		b	.L17
 250              	.LVL24:
 251              	.L23:
 252              	.LBE4:
  61:source\asw/main.c ****         {
 253              		.loc 1 61 0
 254 009e 0024     		movs	r4, #0
 255              	.L17:
 256              	.LVL25:
 257              	.LBB5:
 102:source\asw/main.c ****                 {
 258              		.loc 1 102 0 discriminator 1
 259 00a0 B4F5806F 		cmp	r4, #1024
 260 00a4 F1DB     		blt	.L20
 261              	.LBE5:
 107:source\asw/main.c ****                 
 262              		.loc 1 107 0
 263 00a6 0137     		adds	r7, r7, #1
 264              	.LVL26:
ARM GAS  C:\Users\giris\AppData\Local\Temp\cczSilXR.s 			page 9


 265 00a8 FFB2     		uxtb	r7, r7
 266              	.LVL27:
 119:source\asw/main.c ****                 {
 267              		.loc 1 119 0
 268 00aa 092F     		cmp	r7, #9
 269 00ac 0AD8     		bhi	.L21
 119:source\asw/main.c ****                 {
 270              		.loc 1 119 0 is_stmt 0 discriminator 1
 271 00ae 0C4B     		ldr	r3, .L26+8
 272 00b0 9B78     		ldrb	r3, [r3, #2]	@ zero_extendqisi2
 273 00b2 3BB1     		cbz	r3, .L21
 274              	.LVL28:
 122:source\asw/main.c ****                     oChRx = 0;
 275              		.loc 1 122 0 is_stmt 1
 276 00b4 0020     		movs	r0, #0
 277 00b6 FFF7FEFF 		bl	Red_LED_Write
 278              	.LVL29:
 123:source\asw/main.c ****                 }
 279              		.loc 1 123 0
 280 00ba 0022     		movs	r2, #0
 281 00bc 084B     		ldr	r3, .L26+8
 282 00be 9A70     		strb	r2, [r3, #2]
 121:source\asw/main.c ****                     Red_LED_Write(0);
 283              		.loc 1 121 0
 284 00c0 0126     		movs	r6, #1
 123:source\asw/main.c ****                 }
 285              		.loc 1 123 0
 286 00c2 B9E7     		b	.L14
 287              	.LVL30:
 288              	.L21:
 125:source\asw/main.c ****                 {
 289              		.loc 1 125 0
 290 00c4 0A2F     		cmp	r7, #10
 291 00c6 B7D1     		bne	.L14
 125:source\asw/main.c ****                 {
 292              		.loc 1 125 0 is_stmt 0 discriminator 1
 293 00c8 054B     		ldr	r3, .L26+8
 294 00ca 9B78     		ldrb	r3, [r3, #2]	@ zero_extendqisi2
 295 00cc 002B     		cmp	r3, #0
 296 00ce B3D0     		beq	.L14
 297              	.LVL31:
 128:source\asw/main.c ****                 }
 298              		.loc 1 128 0 is_stmt 1
 299 00d0 0026     		movs	r6, #0
 300 00d2 034B     		ldr	r3, .L26+8
 301 00d4 9E70     		strb	r6, [r3, #2]
 302 00d6 AFE7     		b	.L14
 303              	.L27:
 304              		.align	2
 305              	.L26:
 306 00d8 00000000 		.word	isr_button_RisingEdge_Interrupt
 307 00dc 00000000 		.word	isr_UART
 308 00e0 00000000 		.word	.LANCHOR0
 309              		.cfi_endproc
 310              	.LFE64:
 311              		.size	main, .-main
 312              		.comm	rxDataCh,1,1
ARM GAS  C:\Users\giris\AppData\Local\Temp\cczSilXR.s 			page 10


 313              		.global	oChRx
 314              		.global	sChRx
 315              		.global	toggle
 316              		.bss
 317              		.set	.LANCHOR0,. + 0
 318              		.type	toggle, %object
 319              		.size	toggle, 1
 320              	toggle:
 321 0000 00       		.space	1
 322              		.type	sChRx, %object
 323              		.size	sChRx, 1
 324              	sChRx:
 325 0001 00       		.space	1
 326              		.type	oChRx, %object
 327              		.size	oChRx, 1
 328              	oChRx:
 329 0002 00       		.space	1
 330              		.text
 331              	.Letext0:
 332              		.file 2 "c:\\program files (x86)\\cypress\\psoc creator\\4.4\\psoc creator\\import\\gnu\\arm\\5.4.
 333              		.file 3 "c:\\program files (x86)\\cypress\\psoc creator\\4.4\\psoc creator\\import\\gnu\\arm\\5.4.
 334              		.file 4 "Generated_Source\\PSoC5/cytypes.h"
 335              		.file 5 "Generated_Source\\PSoC5/core_cm3.h"
 336              		.file 6 "Generated_Source\\PSoC5/Push_button.h"
 337              		.file 7 "Generated_Source\\PSoC5/UART_LOG.h"
 338              		.file 8 "Generated_Source\\PSoC5/ADC.h"
 339              		.file 9 "Generated_Source\\PSoC5/isr_button.h"
 340              		.file 10 "Generated_Source\\PSoC5/isr_UART.h"
 341              		.file 11 "Generated_Source\\PSoC5/WaveDAC8.h"
 342              		.file 12 "Generated_Source\\PSoC5/Red_LED.h"